target datalayout = "e-m:e-p270:32:32-p271:32:32-p272:64:64-i64:64-i128:128-f80:128-n8:16:32:64-S128"
target triple = "x86_64-pc-linux-gnu"

; Function Attrs: nounwind uwtable
define i32 @_testfunc_callback_i_if(i32 noundef %0, ptr noundef %1) #0 {
  %3 = alloca i32, align 4
  %4 = alloca ptr, align 8
  %5 = alloca i32, align 4
  store i32 %0, ptr %3, align 4, !tbaa !3
  store ptr %1, ptr %4, align 8, !tbaa !7
  call void @llvm.lifetime.start.p0(i64 4, ptr %5) #12
  store i32 0, ptr %5, align 4, !tbaa !3
  br label %6

6:                                                ; preds = %9, %2
  %7 = load i32, ptr %3, align 4, !tbaa !3
  %8 = icmp ne i32 %7, 0
  br i1 %8, label %9, label %17

9:                                                ; preds = %6
  %10 = load ptr, ptr %4, align 8, !tbaa !7
  %11 = load i32, ptr %3, align 4, !tbaa !3
  %12 = call i32 %10(i32 noundef %11)
  %13 = load i32, ptr %5, align 4, !tbaa !3
  %14 = add i32 %13, %12
  store i32 %14, ptr %5, align 4, !tbaa !3
  %15 = load i32, ptr %3, align 4, !tbaa !3
  %16 = sdiv i32 %15, 2
  store i32 %16, ptr %3, align 4, !tbaa !3
  br label %6, !llvm.loop !62

17:                                               ; preds = %6
  %18 = load i32, ptr %5, align 4, !tbaa !3
  call void @llvm.lifetime.end.p0(i64 4, ptr %5) #12
  ret i32 %18
}