; Function Attrs: nounwind uwtable
define i32 @_testfunc_callback_i_if(i32 noundef %0, ptr noundef readonly captures(none) %1) local_unnamed_addr #0 {
  %.not6 = icmp eq i32 %0, 0
  br i1 %.not6, label %._crit_edge, label %.lr.ph

.lr.ph:                                           ; preds = %2, %.lr.ph
  %.08 = phi i32 [ %4, %.lr.ph ], [ 0, %2 ]
  %.057 = phi i32 [ %5, %.lr.ph ], [ %0, %2 ]
  %3 = tail call i32 %1(i32 noundef %.057) #34
  %4 = add i32 %3, %.08
  %5 = sdiv i32 %.057, 2
  %.057.off = add i32 %.057, 1
  %.not = icmp ult i32 %.057.off, 3
  br i1 %.not, label %._crit_edge, label %.lr.ph, !llvm.loop !53

._crit_edge:                                      ; preds = %.lr.ph, %2
  %.0.lcssa = phi i32 [ 0, %2 ], [ %4, %.lr.ph ]
  ret i32 %.0.lcssa
}